(dp0
S'MIN'
p1
(dp2
S'team city'
p3
S'Minnesota'
p4
sS'team long'
p5
S'wild'
p6
sS'team'
p7
g1
ssS'NYR'
p8
(dp9
g3
S'N.Y. Rangers'
p10
sg5
S'rangers'
p11
sg7
g8
ssS'CAR'
p12
(dp13
g3
S'Carolina'
p14
sg5
S'hurricanes'
p15
sg7
g12
ssS'BOS'
p16
(dp17
g3
S'Boston'
p18
sg5
S'bruins'
p19
sg7
g16
ssS'DET'
p20
(dp21
g3
S'Detroit'
p22
sg5
S'redwings'
p23
sg7
g20
ssS'NYI'
p24
(dp25
g3
S'N.Y. Islanders'
p26
sg5
S'islanders'
p27
sg7
g24
ssS'FLA'
p28
(dp29
g3
S'Florida'
p30
sg5
S'panthers'
p31
sg7
g28
ssS'COL'
p32
(dp33
g3
S'Colorado'
p34
sg5
S'avalanche'
p35
sg7
g32
ssS'NSH'
p36
(dp37
g3
S'Nashville'
p38
sg5
S'predators'
p39
sg7
g36
ssS'NJD'
p40
(dp41
g3
S'New Jersey'
p42
sg5
S'devils'
p43
sg7
g40
ssS'DAL'
p44
(dp45
g3
S'Dallas'
p46
sg5
S'stars'
p47
sg7
g44
ssS'CGY'
p48
(dp49
g3
S'Calgary'
p50
sg5
S'flames'
p51
sg7
g48
ssS'TOR'
p52
(dp53
g3
S'Toronto'
p54
sg5
S'mapleleafs'
p55
sg7
g52
ssS'SJS'
p56
(dp57
g3
S'San Jose'
p58
sg5
S'sharks'
p59
sg7
g56
ssS'WPG'
p60
(dp61
g3
S'Winnipeg'
p62
sg5
S'jets'
p63
sg7
g60
ssS'BUF'
p64
(dp65
g3
S'Buffalo'
p66
sg5
S'sabres'
p67
sg7
g64
ssS'WSH'
p68
(dp69
g3
S'Washington'
p70
sg5
S'capitals'
p71
sg7
g68
ssS'VAN'
p72
(dp73
g3
S'Vancouver'
p74
sg5
S'canucks'
p75
sg7
g72
ssS'STL'
p76
(dp77
g3
S'St. Louis'
p78
sg5
S'blues'
p79
sg7
g76
ssS'CHI'
p80
(dp81
g3
S'Chicago'
p82
sg5
S'blackhawks'
p83
sg7
g80
ssS'MTL'
p84
(dp85
g3
S'Montreal'
p86
sg5
S'canadiens'
p87
sg7
g84
ssS'PHI'
p88
(dp89
g3
S'Philadelphia'
p90
sg5
S'flyers'
p91
sg7
g88
ssS'ANA'
p92
(dp93
g3
S'Anaheim'
p94
sg5
S'ducks'
p95
sg7
g92
ssS'LAK'
p96
(dp97
g3
S'Los Angeles'
p98
sg5
S'kings'
p99
sg7
g96
ssS'CBJ'
p100
(dp101
g3
S'Columbus'
p102
sg5
S'bluejackets'
p103
sg7
g100
ssS'PIT'
p104
(dp105
g3
S'Pittsburgh'
p106
sg5
S'penguins'
p107
sg7
g104
ssS'EDM'
p108
(dp109
g3
S'Edmonton'
p110
sg5
S'oilers'
p111
sg7
g108
ssS'TBL'
p112
(dp113
g3
S'Tampa Bay'
p114
sg5
S'lightning'
p115
sg7
g112
ssS'ARI'
p116
(dp117
g3
S'Arizona'
p118
sg5
S'coyotes'
p119
sg7
g116
ssS'OTT'
p120
(dp121
g3
S'Ottawa'
p122
sg5
S'senators'
p123
sg7
g120
ss.